; Function Attrs: nounwind uwtable
define internal fastcc range(i32 0, 62) i32 @process_trailer(ptr noundef %0, ptr noundef %1) unnamed_addr #0 {
  %3 = getelementptr inbounds nuw i8, ptr %1, i64 40
  %4 = getelementptr inbounds nuw i8, ptr %1, i64 48
  %5 = load i32, ptr %4, align 8, !tbaa !102
  %6 = getelementptr inbounds nuw i8, ptr %1, i64 36
  %7 = load i32, ptr %6, align 4, !tbaa !105
  %. = tail call i32 @llvm.umin.i32(i32 %5, i32 %7)
  %8 = sub i32 %7, %.
  store i32 %8, ptr %6, align 4, !tbaa !105
  %9 = sub i32 %5, %.
  store i32 %9, ptr %4, align 8, !tbaa !102
  %10 = load ptr, ptr %3, align 8, !tbaa !101
  %11 = zext i32 %. to i64
  %12 = getelementptr inbounds nuw i8, ptr %10, i64 %11
  store ptr %12, ptr %3, align 8, !tbaa !101
  %.not.not = icmp ugt i32 %5, %7
  br i1 %.not.not, label %.split, label %21

.split:                                           ; preds = %2
  %13 = getelementptr inbounds nuw i8, ptr %1, i64 32
  %14 = load i32, ptr %13, align 4, !tbaa !103
  %15 = icmp eq i32 %14, 4
  br i1 %15, label %16, label %18

16:                                               ; preds = %.split
  %17 = load ptr, ptr @Curl_cfree, align 8, !tbaa !104
  tail call void %17(ptr noundef %12) #8
  store ptr null, ptr %3, align 8, !tbaa !101
  %.pr.i = load i32, ptr %13, align 4, !tbaa !103
  br label %18

18:                                               ; preds = %16, %.split
  %19 = phi i32 [ %.pr.i, %16 ], [ %14, %.split ]
  %.not.i = icmp eq i32 %19, 0
  br i1 %.not.i, label %exit_zlib.exit, label %process_zlib_error.exit.i

process_zlib_error.exit.i:                        ; preds = %18
  %20 = tail call i32 @cm_zlib_inflateEnd(ptr noundef nonnull %3) #8
  store i32 0, ptr %13, align 4, !tbaa !103
  br label %exit_zlib.exit

21:                                               ; preds = %2
  %.not23.not = icmp ugt i32 %7, %5
  %22 = getelementptr inbounds nuw i8, ptr %1, i64 32
  br i1 %.not23.not, label %35, label %.split19

.split19:                                         ; preds = %21
  %23 = load i32, ptr %22, align 4, !tbaa !103
  %24 = icmp eq i32 %23, 4
  br i1 %24, label %25, label %27

25:                                               ; preds = %.split19
  %26 = load ptr, ptr @Curl_cfree, align 8, !tbaa !104
  tail call void %26(ptr noundef %12) #8
  store ptr null, ptr %3, align 8, !tbaa !101
  %.pr.i31 = load i32, ptr %22, align 4, !tbaa !103
  br label %27

27:                                               ; preds = %25, %.split19
  %28 = phi i32 [ %.pr.i31, %25 ], [ %23, %.split19 ]
  %.not.i24 = icmp eq i32 %28, 0
  br i1 %.not.i24, label %exit_zlib.exit, label %29

29:                                               ; preds = %27
  %30 = tail call i32 @cm_zlib_inflateEnd(ptr noundef nonnull %3) #8
  %.not = icmp eq i32 %30, 0
  br i1 %.not, label %process_zlib_error.exit.i26, label %31

31:                                               ; preds = %29
  %32 = getelementptr i8, ptr %1, i64 88
  %.val.i29 = load ptr, ptr %32, align 8, !tbaa !96
  %.not.i.i30 = icmp eq ptr %.val.i29, null
  br i1 %.not.i.i30, label %34, label %33

33:                                               ; preds = %31
  tail call void (ptr, ptr, ...) @Curl_failf(ptr noundef %0, ptr noundef nonnull @.str.13, ptr noundef nonnull %.val.i29) #8
  br label %process_zlib_error.exit.i26

34:                                               ; preds = %31
  tail call void (ptr, ptr, ...) @Curl_failf(ptr noundef %0, ptr noundef nonnull @.str.14) #8
  br label %process_zlib_error.exit.i26

process_zlib_error.exit.i26:                      ; preds = %34, %33, %29
  %.1.i27 = phi i32 [ 0, %29 ], [ 61, %33 ], [ 61, %34 ]
  store i32 0, ptr %22, align 4, !tbaa !103
  br label %exit_zlib.exit

35:                                               ; preds = %21
  store i32 3, ptr %22, align 8, !tbaa !97
  br label %exit_zlib.exit

exit_zlib.exit:                                   ; preds = %process_zlib_error.exit.i26, %27, %process_zlib_error.exit.i, %18, %35
  %.1 = phi i32 [ 0, %35 ], [ 23, %process_zlib_error.exit.i ], [ 23, %18 ], [ %.1.i27, %process_zlib_error.exit.i26 ], [ 0, %27 ]
  ret i32 %.1
}